; Function Attrs: mustprogress uwtable
define void @_ZN2cv23getPerspectiveTransformERKNS_11_InputArrayES2_i(ptr dead_on_unwind noalias writable sret(%"class.cv::Mat") align 8 %0, ptr noundef nonnull align 8 dereferenceable(24) %1, ptr noundef nonnull align 8 dereferenceable(24) %2, i32 noundef %3) local_unnamed_addr #0 personality ptr @__gxx_personality_v0 {
  %5 = alloca %"class.cv::Mat", align 8
  %6 = alloca %"class.cv::Mat", align 8
  %7 = alloca %"class.std::__cxx11::basic_string", align 8
  %8 = alloca %"class.std::allocator", align 1
  call void @llvm.lifetime.start.p0(i64 96, ptr nonnull %5) #24
  %9 = tail call noundef i32 @_ZNK2cv11_InputArray4kindEv(ptr noundef nonnull align 8 dereferenceable(24) %1), !noalias !578
  %10 = icmp eq i32 %9, 65536
  br i1 %10, label %11, label %14

11:                                               ; preds = %4
  %12 = getelementptr inbounds nuw i8, ptr %1, i64 8
  %13 = load ptr, ptr %12, align 8, !tbaa !12, !noalias !578
  call void @_ZN2cv3MatC1ERKS0_(ptr noundef nonnull align 8 dereferenceable(96) %5, ptr noundef nonnull align 8 dereferenceable(96) %13)
  br label %_ZNK2cv11_InputArray6getMatEi.exit

14:                                               ; preds = %4
  call void @_ZNK2cv11_InputArray7getMat_Ei(ptr dead_on_unwind nonnull writable sret(%"class.cv::Mat") align 8 %5, ptr noundef nonnull align 8 dereferenceable(24) %1, i32 noundef -1)
  br label %_ZNK2cv11_InputArray6getMatEi.exit

_ZNK2cv11_InputArray6getMatEi.exit:               ; preds = %11, %14
  call void @llvm.lifetime.start.p0(i64 96, ptr nonnull %6) #24
  %15 = invoke noundef i32 @_ZNK2cv11_InputArray4kindEv(ptr noundef nonnull align 8 dereferenceable(24) %2)
          to label %.noexc unwind label %28

.noexc:                                           ; preds = %_ZNK2cv11_InputArray6getMatEi.exit
  %16 = icmp eq i32 %15, 65536
  br i1 %16, label %17, label %20

17:                                               ; preds = %.noexc
  %18 = getelementptr inbounds nuw i8, ptr %2, i64 8
  %19 = load ptr, ptr %18, align 8, !tbaa !12, !noalias !581
  invoke void @_ZN2cv3MatC1ERKS0_(ptr noundef nonnull align 8 dereferenceable(96) %6, ptr noundef nonnull align 8 dereferenceable(96) %19)
          to label %_ZNK2cv11_InputArray6getMatEi.exit13 unwind label %28

20:                                               ; preds = %.noexc
  invoke void @_ZNK2cv11_InputArray7getMat_Ei(ptr dead_on_unwind nonnull writable sret(%"class.cv::Mat") align 8 %6, ptr noundef nonnull align 8 dereferenceable(24) %2, i32 noundef -1)
          to label %_ZNK2cv11_InputArray6getMatEi.exit13 unwind label %28

_ZNK2cv11_InputArray6getMatEi.exit13:             ; preds = %17, %20
  %21 = invoke noundef i32 @_ZNK2cv3Mat11checkVectorEiib(ptr noundef nonnull align 8 dereferenceable(96) %5, i32 noundef 2, i32 noundef 5, i1 noundef zeroext true)
          to label %22 unwind label %30

22:                                               ; preds = %_ZNK2cv11_InputArray6getMatEi.exit13
  %23 = icmp eq i32 %21, 4
  br i1 %23, label %24, label %32

24:                                               ; preds = %22
  %25 = invoke noundef i32 @_ZNK2cv3Mat11checkVectorEiib(ptr noundef nonnull align 8 dereferenceable(96) %6, i32 noundef 2, i32 noundef 5, i1 noundef zeroext true)
          to label %26 unwind label %30

26:                                               ; preds = %24
  %27 = icmp eq i32 %25, 4
  br i1 %27, label %45, label %32

28:                                               ; preds = %20, %17, %_ZNK2cv11_InputArray6getMatEi.exit
  %29 = landingpad { ptr, i32 }
          cleanup
  br label %52

30:                                               ; preds = %45, %24, %_ZNK2cv11_InputArray6getMatEi.exit13
  %31 = landingpad { ptr, i32 }
          cleanup
  br label %51

32:                                               ; preds = %26, %22
  call void @llvm.lifetime.start.p0(i64 32, ptr nonnull %7) #24
  call void @llvm.lifetime.start.p0(i64 1, ptr nonnull %8) #24
  invoke void @_ZNSt7__cxx1112basic_stringIcSt11char_traitsIcESaIcEEC2EPKcRKS3_(ptr noundef nonnull align 8 dereferenceable(32) %7, ptr noundef nonnull @.str.32, ptr noundef nonnull align 1 dereferenceable(1) %8)
          to label %33 unwind label %35

33:                                               ; preds = %32
  invoke void @_ZN2cv5errorEiRKNSt7__cxx1112basic_stringIcSt11char_traitsIcESaIcEEEPKcS9_i(i32 noundef -215, ptr noundef nonnull align 8 dereferenceable(32) %7, ptr noundef nonnull @__func__._ZN2cv23getPerspectiveTransformERKNS_11_InputArrayES2_i, ptr noundef nonnull @.str.1, i32 noundef 3523) #25
          to label %34 unwind label %37

34:                                               ; preds = %33
  unreachable

35:                                               ; preds = %32
  %36 = landingpad { ptr, i32 }
          cleanup
  br label %_ZNSt7__cxx1112basic_stringIcSt11char_traitsIcESaIcEED2Ev.exit

37:                                               ; preds = %33
  %38 = landingpad { ptr, i32 }
          cleanup
  %39 = load ptr, ptr %7, align 8, !tbaa !3
  %40 = getelementptr inbounds nuw i8, ptr %7, i64 16
  %41 = icmp eq ptr %39, %40
  br i1 %41, label %_ZNKSt7__cxx1112basic_stringIcSt11char_traitsIcESaIcEE11_M_is_localEv.exit.thread.i.i, label %_ZNKSt7__cxx1112basic_stringIcSt11char_traitsIcESaIcEE11_M_is_localEv.exit.i.i

_ZNKSt7__cxx1112basic_stringIcSt11char_traitsIcESaIcEE11_M_is_localEv.exit.thread.i.i: ; preds = %37
  %42 = getelementptr inbounds nuw i8, ptr %7, i64 8
  %43 = load i64, ptr %42, align 8, !tbaa !11
  %44 = icmp ult i64 %43, 16
  call void @llvm.assume(i1 %44)
  br label %_ZNSt7__cxx1112basic_stringIcSt11char_traitsIcESaIcEED2Ev.exit

_ZNKSt7__cxx1112basic_stringIcSt11char_traitsIcESaIcEE11_M_is_localEv.exit.i.i: ; preds = %37
  call void @_ZdlPv(ptr noundef %39) #26
  br label %_ZNSt7__cxx1112basic_stringIcSt11char_traitsIcESaIcEED2Ev.exit

_ZNSt7__cxx1112basic_stringIcSt11char_traitsIcESaIcEED2Ev.exit: ; preds = %_ZNKSt7__cxx1112basic_stringIcSt11char_traitsIcESaIcEE11_M_is_localEv.exit.i.i, %_ZNKSt7__cxx1112basic_stringIcSt11char_traitsIcESaIcEE11_M_is_localEv.exit.thread.i.i, %35
  %.pn = phi { ptr, i32 } [ %36, %35 ], [ %38, %_ZNKSt7__cxx1112basic_stringIcSt11char_traitsIcESaIcEE11_M_is_localEv.exit.thread.i.i ], [ %38, %_ZNKSt7__cxx1112basic_stringIcSt11char_traitsIcESaIcEE11_M_is_localEv.exit.i.i ]
  call void @llvm.lifetime.end.p0(i64 1, ptr nonnull %8) #24
  call void @llvm.lifetime.end.p0(i64 32, ptr nonnull %7) #24
  br label %51

45:                                               ; preds = %26
  %46 = getelementptr inbounds nuw i8, ptr %5, i64 16
  %47 = load ptr, ptr %46, align 8, !tbaa !39
  %48 = getelementptr inbounds nuw i8, ptr %6, i64 16
  %49 = load ptr, ptr %48, align 8, !tbaa !39
  invoke void @_ZN2cv23getPerspectiveTransformEPKNS_6Point_IfEES3_i(ptr dead_on_unwind writable sret(%"class.cv::Mat") align 8 %0, ptr noundef %47, ptr noundef %49, i32 noundef %3)
          to label %50 unwind label %30

50:                                               ; preds = %45
  call void @_ZN2cv3MatD1Ev(ptr noundef nonnull align 8 dereferenceable(96) %6) #24
  call void @llvm.lifetime.end.p0(i64 96, ptr nonnull %6) #24
  call void @_ZN2cv3MatD1Ev(ptr noundef nonnull align 8 dereferenceable(96) %5) #24
  call void @llvm.lifetime.end.p0(i64 96, ptr nonnull %5) #24
  ret void

51:                                               ; preds = %_ZNSt7__cxx1112basic_stringIcSt11char_traitsIcESaIcEED2Ev.exit, %30
  %.pn8 = phi { ptr, i32 } [ %31, %30 ], [ %.pn, %_ZNSt7__cxx1112basic_stringIcSt11char_traitsIcESaIcEED2Ev.exit ]
  call void @_ZN2cv3MatD1Ev(ptr noundef nonnull align 8 dereferenceable(96) %6) #24
  br label %52

52:                                               ; preds = %51, %28
  %.pn8.pn = phi { ptr, i32 } [ %.pn8, %51 ], [ %29, %28 ]
  call void @llvm.lifetime.end.p0(i64 96, ptr nonnull %6) #24
  call void @_ZN2cv3MatD1Ev(ptr noundef nonnull align 8 dereferenceable(96) %5) #24
  call void @llvm.lifetime.end.p0(i64 96, ptr nonnull %5) #24
  resume { ptr, i32 } %.pn8.pn
}